; ModuleID = '34/3168.c'
source_filename = "34/3168.c"
target datalayout = "e-m:e-p270:32:32-p271:32:32-p272:64:64-i64:64-f80:128-n8:16:32:64-S128"
target triple = "x86_64-pc-linux-gnu"

@.str = private unnamed_addr constant [3 x i8] c"%d\00", align 1
@.str.1 = private unnamed_addr constant [11 x i8] c"%d*3+1=%d\0A\00", align 1
@.str.2 = private unnamed_addr constant [9 x i8] c"%d/2=%d\0A\00", align 1
@.str.3 = private unnamed_addr constant [4 x i8] c"End\00", align 1

; Function Attrs: noinline nounwind uwtable
define dso_local i32 @main() #0 {
  %1 = alloca i32, align 4
  %2 = alloca i32, align 4
  store i32 0, i32* %1, align 4
  %3 = call i32 (i8*, ...) @__isoc99_scanf(i8* getelementptr inbounds ([3 x i8], [3 x i8]* @.str, i64 0, i64 0), i32* %2)
  br label %4

4:                                                ; preds = %34, %0
  %5 = load i32, i32* %2, align 4
  %6 = urem i32 %5, 2
  %7 = icmp eq i32 %6, 1
  br i1 %7, label %8, label %20

8:                                                ; preds = %4
  %9 = load i32, i32* %2, align 4
  %10 = icmp ne i32 %9, 1
  br i1 %10, label %11, label %20

11:                                               ; preds = %8
  %12 = load i32, i32* %2, align 4
  %13 = mul i32 3, %12
  %14 = add i32 %13, 1
  store i32 %14, i32* %2, align 4
  %15 = load i32, i32* %2, align 4
  %16 = sub i32 %15, 1
  %17 = udiv i32 %16, 3
  %18 = load i32, i32* %2, align 4
  %19 = call i32 (i8*, ...) @printf(i8* getelementptr inbounds ([11 x i8], [11 x i8]* @.str.1, i64 0, i64 0), i32 %17, i32 %18)
  br label %33

20:                                               ; preds = %8, %4
  %21 = load i32, i32* %2, align 4
  %22 = urem i32 %21, 2
  %23 = icmp eq i32 %22, 0
  br i1 %23, label %24, label %31

24:                                               ; preds = %20
  %25 = load i32, i32* %2, align 4
  %26 = udiv i32 %25, 2
  store i32 %26, i32* %2, align 4
  %27 = load i32, i32* %2, align 4
  %28 = mul i32 2, %27
  %29 = load i32, i32* %2, align 4
  %30 = call i32 (i8*, ...) @printf(i8* getelementptr inbounds ([9 x i8], [9 x i8]* @.str.2, i64 0, i64 0), i32 %28, i32 %29)
  br label %32

31:                                               ; preds = %20
  br label %32

32:                                               ; preds = %31, %24
  br label %33

33:                                               ; preds = %32, %11
  br label %34

34:                                               ; preds = %33
  %35 = load i32, i32* %2, align 4
  %36 = icmp ne i32 %35, 1
  br i1 %36, label %4, label %37

37:                                               ; preds = %34
  %38 = call i32 (i8*, ...) @printf(i8* getelementptr inbounds ([4 x i8], [4 x i8]* @.str.3, i64 0, i64 0))
  %39 = load i32, i32* %1, align 4
  ret i32 %39
}

declare dso_local i32 @__isoc99_scanf(i8*, ...) #1

declare dso_local i32 @printf(i8*, ...) #1


!llvm.module.flags = !{!0}
!llvm.ident = !{!1}

!0 = !{i32 1, !"wchar_size", i32 4}
!1 = !{!"clang version 10.0.0-4ubuntu1 "}
